; Function Attrs: mustprogress uwtable
define void @_ZN3gmx14ColvarsOptions13setParametersERKNSt7__cxx1112basic_stringIcSt11char_traitsIcESaIcEEERK7t_atomsNS_8ArrayRefIKNS_11BasicVectorIfEEEE7PbcTypePA3_Kff(ptr noundef nonnull align 8 dereferenceable(560) %0, ptr noundef nonnull align 8 dereferenceable(32) %1, ptr noundef nonnull readonly align 8 captures(none) dereferenceable(72) %2, ptr %3, ptr %4, i32 noundef %5, ptr noundef readonly captures(none) %6, float noundef %7) local_unnamed_addr #0 align 2 {
  %9 = getelementptr inbounds nuw i8, ptr %0, i64 240
  tail call void @_ZNSt7__cxx1112basic_stringIcSt11char_traitsIcESaIcEE9_M_assignERKS4_(ptr noundef nonnull align 8 dereferenceable(32) %9, ptr noundef nonnull align 8 dereferenceable(32) %1)
  %10 = getelementptr inbounds nuw i8, ptr %0, i64 312
  tail call void @llvm.memcpy.p0.p0.i64(ptr noundef nonnull align 8 dereferenceable(72) %10, ptr noundef nonnull align 8 dereferenceable(72) %2, i64 72, i1 false), !tbaa.struct !494
  %11 = getelementptr inbounds nuw i8, ptr %0, i64 384
  store ptr %3, ptr %11, align 8
  %.sroa.2.0..sroa_idx = getelementptr inbounds nuw i8, ptr %0, i64 392
  store ptr %4, ptr %.sroa.2.0..sroa_idx, align 8
  %12 = getelementptr inbounds nuw i8, ptr %0, i64 400
  store i32 %5, ptr %12, align 8, !tbaa !303
  %13 = getelementptr inbounds nuw i8, ptr %0, i64 404
  %14 = load float, ptr %6, align 4, !tbaa !326
  store float %14, ptr %13, align 4, !tbaa !326
  %15 = getelementptr inbounds nuw i8, ptr %6, i64 4
  %16 = load float, ptr %15, align 4, !tbaa !326
  %17 = getelementptr inbounds nuw i8, ptr %0, i64 408
  store float %16, ptr %17, align 8, !tbaa !326
  %18 = getelementptr inbounds nuw i8, ptr %6, i64 8
  %19 = load float, ptr %18, align 4, !tbaa !326
  %20 = getelementptr inbounds nuw i8, ptr %0, i64 412
  store float %19, ptr %20, align 4, !tbaa !326
  %21 = getelementptr inbounds nuw i8, ptr %6, i64 12
  %22 = getelementptr inbounds nuw i8, ptr %0, i64 416
  %23 = load float, ptr %21, align 4, !tbaa !326
  store float %23, ptr %22, align 8, !tbaa !326
  %24 = getelementptr inbounds nuw i8, ptr %6, i64 16
  %25 = load float, ptr %24, align 4, !tbaa !326
  %26 = getelementptr inbounds nuw i8, ptr %0, i64 420
  store float %25, ptr %26, align 4, !tbaa !326
  %27 = getelementptr inbounds nuw i8, ptr %6, i64 20
  %28 = load float, ptr %27, align 4, !tbaa !326
  %29 = getelementptr inbounds nuw i8, ptr %0, i64 424
  store float %28, ptr %29, align 8, !tbaa !326
  %30 = getelementptr inbounds nuw i8, ptr %6, i64 24
  %31 = getelementptr inbounds nuw i8, ptr %0, i64 428
  %32 = load float, ptr %30, align 4, !tbaa !326
  store float %32, ptr %31, align 4, !tbaa !326
  %33 = getelementptr inbounds nuw i8, ptr %6, i64 28
  %34 = load float, ptr %33, align 4, !tbaa !326
  %35 = getelementptr inbounds nuw i8, ptr %0, i64 432
  store float %34, ptr %35, align 8, !tbaa !326
  %36 = getelementptr inbounds nuw i8, ptr %6, i64 32
  %37 = load float, ptr %36, align 4, !tbaa !326
  %38 = getelementptr inbounds nuw i8, ptr %0, i64 436
  store float %37, ptr %38, align 4, !tbaa !326
  %39 = getelementptr inbounds nuw i8, ptr %0, i64 512
  store float %7, ptr %39, align 8, !tbaa !304
  ret void
}